; Function Attrs: nounwind sspstrong uwtable
define internal void @virtio_pci_base_class_init(ptr noundef %0, ptr noundef readonly captures(none) %1) #0 {
  %3 = getelementptr inbounds nuw i8, ptr %1, i64 72
  %4 = load ptr, ptr %3, align 8
  %.not = icmp eq ptr %4, null
  br i1 %.not, label %6, label %5

5:                                                ; preds = %2
  tail call void %4(ptr noundef %0, ptr noundef null) #15
  br label %6

6:                                                ; preds = %5, %2
  ret void
}